; Function Attrs: mustprogress nounwind uwtable
define hidden void @_ZNK13YoungGCTracer19send_young_gc_eventEv(ptr nocapture noundef nonnull readonly align 8 dereferenceable(84) %0) local_unnamed_addr #1 align 2 {
  %2 = alloca %class.EventYoungGarbageCollection, align 8
  %3 = getelementptr inbounds i8, ptr %2, i64 16
  store i8 1, ptr %3, align 8
  %4 = getelementptr inbounds i8, ptr %2, i64 17
  store i8 0, ptr %4, align 1
  %5 = getelementptr inbounds i8, ptr %2, i64 18
  store i8 0, ptr %5, align 2
  %6 = load i8, ptr getelementptr inbounds (i8, ptr @_ZN15JfrEventSetting19_jvm_event_settingsE, i64 1169), align 1
  %.not.i = icmp eq i8 %6, 0
  br i1 %.not.i, label %_ZN8JfrEventI27EventYoungGarbageCollectionE13should_commitEv.exit, label %7

7:                                                ; preds = %1
  %8 = tail call noundef i32 @_ZN4GCId7currentEv() #11
  %9 = getelementptr inbounds i8, ptr %2, i64 20
  store i32 %8, ptr %9, align 4
  %10 = getelementptr inbounds i8, ptr %0, i64 80
  %11 = load i32, ptr %10, align 8
  %12 = getelementptr inbounds i8, ptr %2, i64 24
  store i32 %11, ptr %12, align 8
  %13 = getelementptr inbounds i8, ptr %0, i64 16
  %.sroa.0.0.copyload.i = load i64, ptr %13, align 8
  %.sroa.2.0..sroa_idx.i = getelementptr inbounds i8, ptr %0, i64 24
  %.sroa.2.0.copyload.i = load i64, ptr %.sroa.2.0..sroa_idx.i, align 8
  %14 = load i8, ptr @_ZN7JfrTime11_ft_enabledE, align 1
  %15 = trunc i8 %14 to i1
  %16 = select i1 %15, i64 %.sroa.2.0.copyload.i, i64 %.sroa.0.0.copyload.i
  store i64 %16, ptr %2, align 8
  %17 = getelementptr inbounds i8, ptr %0, i64 32
  %.sroa.0.0.copyload.i1 = load i64, ptr %17, align 8
  %.sroa.2.0..sroa_idx.i2 = getelementptr inbounds i8, ptr %0, i64 40
  %.sroa.2.0.copyload.i3 = load i64, ptr %.sroa.2.0..sroa_idx.i2, align 8
  %18 = select i1 %15, i64 %.sroa.2.0.copyload.i3, i64 %.sroa.0.0.copyload.i1
  %19 = getelementptr inbounds i8, ptr %2, i64 8
  store i64 %18, ptr %19, align 8
  call void @_ZN8JfrEventI27EventYoungGarbageCollectionE6commitEv(ptr noundef nonnull align 8 dereferenceable(19) %2)
  br label %_ZN8JfrEventI27EventYoungGarbageCollectionE13should_commitEv.exit

_ZN8JfrEventI27EventYoungGarbageCollectionE13should_commitEv.exit: ; preds = %1, %7
  ret void
}